; ModuleID = 'source-C-CXX/44/1574.c'
source_filename = "source-C-CXX/44/1574.c"
target datalayout = "e-m:e-p270:32:32-p271:32:32-p272:64:64-i64:64-f80:128-n8:16:32:64-S128"
target triple = "x86_64-pc-linux-gnu"

@.str = private unnamed_addr constant [5 x i8] c"%s%s\00", align 1
@.str.1 = private unnamed_addr constant [4 x i8] c"%d\0A\00", align 1

; Function Attrs: nofree nounwind sspstrong uwtable
define dso_local i32 @main() local_unnamed_addr #0 {
  %1 = alloca [50 x i8], align 16
  %2 = alloca [50 x i8], align 16
  %3 = getelementptr inbounds [50 x i8], [50 x i8]* %1, i64 0, i64 0
  call void @llvm.lifetime.start.p0i8(i64 50, i8* nonnull %3) #3
  %4 = getelementptr inbounds [50 x i8], [50 x i8]* %2, i64 0, i64 0
  call void @llvm.lifetime.start.p0i8(i64 50, i8* nonnull %4) #3
  %5 = call i32 (i8*, ...) @__isoc99_scanf(i8* getelementptr inbounds ([5 x i8], [5 x i8]* @.str, i64 0, i64 0), i8* nonnull %3, i8* nonnull %4)
  %6 = getelementptr inbounds [50 x i8], [50 x i8]* %1, i64 0, i64 1
  %7 = load i8, i8* %4, align 16, !tbaa !5
  %8 = icmp eq i8 %7, 0
  br i1 %8, label %47, label %9

9:                                                ; preds = %0, %41
  %10 = phi i64 [ %43, %41 ], [ 0, %0 ]
  %11 = phi i8 [ %45, %41 ], [ %7, %0 ]
  %12 = phi i32 [ %42, %41 ], [ 1, %0 ]
  %13 = load i8, i8* %3, align 16, !tbaa !5
  %14 = icmp ne i8 %11, %13
  %15 = load i8, i8* %6, align 1
  %16 = icmp eq i8 %15, 0
  %17 = select i1 %14, i1 true, i1 %16
  br i1 %17, label %41, label %18

18:                                               ; preds = %9
  %19 = sext i32 %12 to i64
  br label %24

20:                                               ; preds = %24
  %21 = getelementptr inbounds [50 x i8], [50 x i8]* %1, i64 0, i64 %34
  %22 = load i8, i8* %21, align 1, !tbaa !5
  %23 = icmp eq i8 %22, 0
  br i1 %23, label %39, label %24, !llvm.loop !8

24:                                               ; preds = %18, %20
  %25 = phi i64 [ 1, %18 ], [ %34, %20 ]
  %26 = phi i64 [ %19, %18 ], [ %30, %20 ]
  %27 = phi i8 [ %15, %18 ], [ %22, %20 ]
  %28 = add nuw nsw i64 %25, %10
  %29 = getelementptr inbounds [50 x i8], [50 x i8]* %2, i64 0, i64 %28
  store i8 %27, i8* %29, align 1, !tbaa !5
  %30 = add nsw i64 %26, 1
  %31 = getelementptr inbounds [50 x i8], [50 x i8]* %1, i64 0, i64 %30
  %32 = load i8, i8* %31, align 1, !tbaa !5
  %33 = icmp eq i8 %32, 0
  %34 = add nuw i64 %25, 1
  br i1 %33, label %35, label %20

35:                                               ; preds = %24
  %36 = trunc i64 %30 to i32
  %37 = trunc i64 %10 to i32
  %38 = call i32 (i8*, ...) @printf(i8* nonnull dereferenceable(1) getelementptr inbounds ([4 x i8], [4 x i8]* @.str.1, i64 0, i64 0), i32 %37)
  br label %41

39:                                               ; preds = %20
  %40 = trunc i64 %30 to i32
  br label %41

41:                                               ; preds = %39, %9, %35
  %42 = phi i32 [ %36, %35 ], [ %12, %9 ], [ %40, %39 ]
  %43 = add nuw nsw i64 %10, 1
  %44 = getelementptr inbounds [50 x i8], [50 x i8]* %2, i64 0, i64 %43
  %45 = load i8, i8* %44, align 1, !tbaa !5
  %46 = icmp eq i8 %45, 0
  br i1 %46, label %47, label %9, !llvm.loop !10

47:                                               ; preds = %41, %0
  call void @llvm.lifetime.end.p0i8(i64 50, i8* nonnull %4) #3
  call void @llvm.lifetime.end.p0i8(i64 50, i8* nonnull %3) #3
  ret i32 0
}

; Function Attrs: argmemonly mustprogress nofree nosync nounwind willreturn
declare void @llvm.lifetime.start.p0i8(i64 immarg, i8* nocapture) #1

; Function Attrs: nofree nounwind
declare noundef i32 @__isoc99_scanf(i8* nocapture noundef readonly, ...) local_unnamed_addr #2

; Function Attrs: nofree nounwind
declare noundef i32 @printf(i8* nocapture noundef readonly, ...) local_unnamed_addr #2

; Function Attrs: argmemonly mustprogress nofree nosync nounwind willreturn
declare void @llvm.lifetime.end.p0i8(i64 immarg, i8* nocapture) #1


!llvm.module.flags = !{!0, !1, !2, !3}
!llvm.ident = !{!4}

!0 = !{i32 1, !"wchar_size", i32 4}
!1 = !{i32 7, !"PIC Level", i32 2}
!2 = !{i32 7, !"PIE Level", i32 2}
!3 = !{i32 7, !"uwtable", i32 1}
!4 = !{!"clang version 13.0.0"}
!5 = !{!6, !6, i64 0}
!6 = !{!"omnipotent char", !7, i64 0}
!7 = !{!"Simple C/C++ TBAA"}
!8 = distinct !{!8, !9}
!9 = !{!"llvm.loop.mustprogress"}
!10 = distinct !{!10, !9}
